	.file	"function.c"
	.text
	.section	.rodata
	.align 8
.LC0:
	.string	"Enter two integers for division: "
.LC1:
	.string	"%d %d"
	.align 8
.LC2:
	.string	"Error! Division by zero is not allowed."
.LC3:
	.string	"Division Result: %d\n"
	.align 8
.LC4:
	.string	"Enter two numbers for multiplication: "
.LC5:
	.string	"%f %f"
.LC6:
	.string	"Multiplication Result: %.2f\n"
	.text
	.globl	main
	.type	main, @function
main:
.LFB0:
	.cfi_startproc
	endbr64
	pushq	%rbp
	.cfi_def_cfa_offset 16
	.cfi_offset 6, -16
	movq	%rsp, %rbp
	.cfi_def_cfa_register 6
	subq	$32, %rsp
	movq	%fs:40, %rax
	movq	%rax, -8(%rbp)
	xorl	%eax, %eax
	movl	$0, %eax
	call	add
	movl	$0, %eax
	call	sub
	leaq	.LC0(%rip), %rax
	movq	%rax, %rdi
	movl	$0, %eax
	call	printf@PLT
	leaq	-20(%rbp), %rdx
	leaq	-24(%rbp), %rax
	movq	%rax, %rsi
	leaq	.LC1(%rip), %rax
	movq	%rax, %rdi
	movl	$0, %eax
	call	__isoc99_scanf@PLT
	movl	-20(%rbp), %eax
	testl	%eax, %eax
	jne	.L2
	leaq	.LC2(%rip), %rax
	movq	%rax, %rdi
	call	puts@PLT
	jmp	.L3
.L2:
	movl	-20(%rbp), %edx
	movl	-24(%rbp), %eax
	movl	%edx, %esi
	movl	%eax, %edi
	call	divide
	movl	%eax, %esi
	leaq	.LC3(%rip), %rax
	movq	%rax, %rdi
	movl	$0, %eax
	call	printf@PLT
.L3:
	leaq	.LC4(%rip), %rax
	movq	%rax, %rdi
	movl	$0, %eax
	call	printf@PLT
	leaq	-12(%rbp), %rdx
	leaq	-16(%rbp), %rax
	movq	%rax, %rsi
	leaq	.LC5(%rip), %rax
	movq	%rax, %rdi
	movl	$0, %eax
	call	__isoc99_scanf@PLT
	movss	-12(%rbp), %xmm0
	movl	-16(%rbp), %eax
	movaps	%xmm0, %xmm1
	movd	%eax, %xmm0
	call	mul
	pxor	%xmm2, %xmm2
	cvtss2sd	%xmm0, %xmm2
	movq	%xmm2, %rax
	movq	%rax, %xmm0
	leaq	.LC6(%rip), %rax
	movq	%rax, %rdi
	movl	$1, %eax
	call	printf@PLT
	movl	$0, %eax
	movq	-8(%rbp), %rdx
	subq	%fs:40, %rdx
	je	.L5
	call	__stack_chk_fail@PLT
.L5:
	leave
	.cfi_def_cfa 7, 8
	ret
	.cfi_endproc
.LFE0:
	.size	main, .-main
	.section	.rodata
	.align 8
.LC7:
	.string	"Enter two numbers for addition: "
.LC8:
	.string	"Addition Result: %d\n"
	.text
	.globl	add
	.type	add, @function
add:
.LFB1:
	.cfi_startproc
	endbr64
	pushq	%rbp
	.cfi_def_cfa_offset 16
	.cfi_offset 6, -16
	movq	%rsp, %rbp
	.cfi_def_cfa_register 6
	subq	$32, %rsp
	movq	%fs:40, %rax
	movq	%rax, -8(%rbp)
	xorl	%eax, %eax
	leaq	.LC7(%rip), %rax
	movq	%rax, %rdi
	movl	$0, %eax
	call	printf@PLT
	leaq	-16(%rbp), %rdx
	leaq	-20(%rbp), %rax
	movq	%rax, %rsi
	leaq	.LC1(%rip), %rax
	movq	%rax, %rdi
	movl	$0, %eax
	call	__isoc99_scanf@PLT
	movl	-20(%rbp), %edx
	movl	-16(%rbp), %eax
	addl	%edx, %eax
	movl	%eax, -12(%rbp)
	movl	-12(%rbp), %eax
	movl	%eax, %esi
	leaq	.LC8(%rip), %rax
	movq	%rax, %rdi
	movl	$0, %eax
	call	printf@PLT
	nop
	movq	-8(%rbp), %rax
	subq	%fs:40, %rax
	je	.L7
	call	__stack_chk_fail@PLT
.L7:
	leave
	.cfi_def_cfa 7, 8
	ret
	.cfi_endproc
.LFE1:
	.size	add, .-add
	.section	.rodata
	.align 8
.LC9:
	.string	"Enter two numbers for subtraction: "
.LC10:
	.string	"Subtraction Result: %d\n"
	.text
	.globl	sub
	.type	sub, @function
sub:
.LFB2:
	.cfi_startproc
	endbr64
	pushq	%rbp
	.cfi_def_cfa_offset 16
	.cfi_offset 6, -16
	movq	%rsp, %rbp
	.cfi_def_cfa_register 6
	subq	$32, %rsp
	movq	%fs:40, %rax
	movq	%rax, -8(%rbp)
	xorl	%eax, %eax
	leaq	.LC9(%rip), %rax
	movq	%rax, %rdi
	movl	$0, %eax
	call	printf@PLT
	leaq	-16(%rbp), %rdx
	leaq	-20(%rbp), %rax
	movq	%rax, %rsi
	leaq	.LC1(%rip), %rax
	movq	%rax, %rdi
	movl	$0, %eax
	call	__isoc99_scanf@PLT
	movl	-20(%rbp), %eax
	movl	-16(%rbp), %edx
	subl	%edx, %eax
	movl	%eax, -12(%rbp)
	movl	-12(%rbp), %eax
	movl	%eax, %esi
	leaq	.LC10(%rip), %rax
	movq	%rax, %rdi
	movl	$0, %eax
	call	printf@PLT
	nop
	movq	-8(%rbp), %rax
	subq	%fs:40, %rax
	je	.L9
	call	__stack_chk_fail@PLT
.L9:
	leave
	.cfi_def_cfa 7, 8
	ret
	.cfi_endproc
.LFE2:
	.size	sub, .-sub
	.globl	divide
	.type	divide, @function
divide:
.LFB3:
	.cfi_startproc
	endbr64
	pushq	%rbp
	.cfi_def_cfa_offset 16
	.cfi_offset 6, -16
	movq	%rsp, %rbp
	.cfi_def_cfa_register 6
	movl	%edi, -4(%rbp)
	movl	%esi, -8(%rbp)
	movl	-4(%rbp), %eax
	cltd
	idivl	-8(%rbp)
	popq	%rbp
	.cfi_def_cfa 7, 8
	ret
	.cfi_endproc
.LFE3:
	.size	divide, .-divide
	.globl	mul
	.type	mul, @function
mul:
.LFB4:
	.cfi_startproc
	endbr64
	pushq	%rbp
	.cfi_def_cfa_offset 16
	.cfi_offset 6, -16
	movq	%rsp, %rbp
	.cfi_def_cfa_register 6
	movss	%xmm0, -4(%rbp)
	movss	%xmm1, -8(%rbp)
	movss	-4(%rbp), %xmm0
	mulss	-8(%rbp), %xmm0
	popq	%rbp
	.cfi_def_cfa 7, 8
	ret
	.cfi_endproc
.LFE4:
	.size	mul, .-mul
	.ident	"GCC: (Ubuntu 11.4.0-1ubuntu1~22.04) 11.4.0"
	.section	.note.GNU-stack,"",@progbits
	.section	.note.gnu.property,"a"
	.align 8
	.long	1f - 0f
	.long	4f - 1f
	.long	5
0:
	.string	"GNU"
1:
	.align 8
	.long	0xc0000002
	.long	3f - 2f
2:
	.long	0x3
3:
	.align 8
4:
